; Function Attrs: mustprogress nounwind uwtable
define noundef nonnull align 8 dereferenceable(20) ptr @_ZN4pkpy7SStreamlsEc(ptr noundef nonnull returned align 8 dereferenceable(20) %0, i8 noundef signext %1) local_unnamed_addr #4 align 2 {
  %3 = load i32, ptr %0, align 8
  %4 = getelementptr inbounds i8, ptr %0, i64 4
  %5 = load i32, ptr %4, align 4
  %6 = icmp eq i32 %3, %5
  br i1 %6, label %7, label %_ZN4pkpy10pod_vectorIcLi2EE9push_backIRcEEvOT_.exit

7:                                                ; preds = %2
  %8 = shl nsw i32 %3, 1
  %.not.i.i = icmp slt i32 %3, %8
  br i1 %.not.i.i, label %9, label %_ZN4pkpy10pod_vectorIcLi2EE9push_backIRcEEvOT_.exit

9:                                                ; preds = %7
  store i32 %8, ptr %4, align 4
  %10 = getelementptr inbounds i8, ptr %0, i64 8
  %11 = load ptr, ptr %10, align 8
  %12 = sext i32 %8 to i64
  %13 = tail call noundef ptr @_ZN4pkpy12pool64_allocEm(i64 noundef %12) #23
  store ptr %13, ptr %10, align 8
  %.not6.i.i = icmp eq ptr %11, null
  %.pre2.i = load i32, ptr %0, align 8
  br i1 %.not6.i.i, label %_ZN4pkpy10pod_vectorIcLi2EE9push_backIRcEEvOT_.exit, label %14

14:                                               ; preds = %9
  %15 = sext i32 %.pre2.i to i64
  tail call void @llvm.memcpy.p0.p0.i64(ptr align 1 %13, ptr nonnull align 1 %11, i64 %15, i1 false)
  tail call void @_ZN4pkpy14pool64_deallocEPv(ptr noundef nonnull %11) #23
  %.pre.i = load i32, ptr %0, align 8
  br label %_ZN4pkpy10pod_vectorIcLi2EE9push_backIRcEEvOT_.exit

_ZN4pkpy10pod_vectorIcLi2EE9push_backIRcEEvOT_.exit: ; preds = %2, %7, %9, %14
  %16 = phi i32 [ %.pre.i, %14 ], [ %.pre2.i, %9 ], [ %3, %7 ], [ %3, %2 ]
  %17 = getelementptr inbounds i8, ptr %0, i64 8
  %18 = load ptr, ptr %17, align 8
  %19 = add nsw i32 %16, 1
  store i32 %19, ptr %0, align 8
  %20 = sext i32 %16 to i64
  %21 = getelementptr inbounds i8, ptr %18, i64 %20
  store i8 %1, ptr %21, align 1
  ret ptr %0
}